; Function Attrs: mustprogress uwtable
define noundef zeroext i1 @ggml_backend_buffer_is_host(ptr noundef readonly captures(none) %0) local_unnamed_addr #0 {
  %2 = getelementptr inbounds nuw i8, ptr %0, i64 72
  %3 = load ptr, ptr %2, align 8, !tbaa !10
  %4 = getelementptr inbounds nuw i8, ptr %3, i64 40
  %5 = load ptr, ptr %4, align 8, !tbaa !25
  %.not.i = icmp eq ptr %5, null
  br i1 %.not.i, label %ggml_backend_buft_is_host.exit, label %6

6:                                                ; preds = %1
  %7 = tail call noundef zeroext i1 %5(ptr noundef nonnull %3)
  br label %ggml_backend_buft_is_host.exit

ggml_backend_buft_is_host.exit:                   ; preds = %1, %6
  %.0.i = phi i1 [ %7, %6 ], [ false, %1 ]
  ret i1 %.0.i
}